; Function Attrs: nofree nounwind uwtable
define void @Ree_TruthPrecompute() local_unnamed_addr #0 {
  %1 = alloca i64, align 8
  call void @llvm.lifetime.start.p0(i64 8, ptr nonnull %1) #21
  br label %2

2:                                                ; preds = %0, %Abc_TtPrintHexRev.exit
  %indvars.iv = phi i64 [ 0, %0 ], [ %indvars.iv.next, %Abc_TtPrintHexRev.exit ]
  %3 = getelementptr inbounds nuw [8 x i64], ptr @__const.Ree_TruthPrecompute.Truths, i64 0, i64 %indvars.iv
  %4 = load i64, ptr %3, align 8, !tbaa !3
  %5 = and i64 %4, -4340410370284600381
  %6 = shl i64 %4, 2
  %7 = and i64 %6, 3472328296227680304
  %8 = or disjoint i64 %7, %5
  %9 = lshr i64 %4, 2
  %10 = and i64 %9, 868082074056920076
  %11 = or disjoint i64 %8, %10
  store i64 %11, ptr %1, align 8, !tbaa !3
  %12 = load ptr, ptr @stdout, align 8, !tbaa !7
  br label %.preheader.i

.preheader.i:                                     ; preds = %22, %2
  %.018.i = phi ptr [ %1, %2 ], [ %23, %22 ]
  br label %13

13:                                               ; preds = %13, %.preheader.i
  %indvars.iv.i = phi i64 [ 1, %.preheader.i ], [ %indvars.iv.next.i, %13 ]
  %14 = load i64, ptr %.018.i, align 8, !tbaa !3
  %15 = shl nuw nsw i64 %indvars.iv.i, 2
  %16 = lshr i64 %14, %15
  %17 = trunc i64 %16 to i32
  %18 = and i32 %17, 15
  %19 = icmp samesign ult i32 %18, 10
  %20 = or disjoint i32 %18, 48
  %21 = add nuw nsw i32 %18, 55
  %.0.i.i = select i1 %19, i32 %20, i32 %21
  %fputc.i = call i32 @fputc(i32 %.0.i.i, ptr %12)
  %indvars.iv.next.i = add nsw i64 %indvars.iv.i, -1
  %.not20.i = icmp eq i64 %indvars.iv.i, 0
  br i1 %.not20.i, label %22, label %13, !llvm.loop !10

22:                                               ; preds = %13
  %23 = getelementptr inbounds i8, ptr %.018.i, i64 -8
  %.not.i = icmp ult ptr %23, %1
  br i1 %.not.i, label %Abc_TtPrintHexRev.exit, label %.preheader.i, !llvm.loop !12

Abc_TtPrintHexRev.exit:                           ; preds = %22
  %putchar8 = call i32 @putchar(i32 10)
  %indvars.iv.next = add nuw nsw i64 %indvars.iv, 1
  %exitcond.not = icmp eq i64 %indvars.iv.next, 8
  br i1 %exitcond.not, label %24, label %2, !llvm.loop !13

24:                                               ; preds = %Abc_TtPrintHexRev.exit
  %putchar = call i32 @putchar(i32 10)
  br label %25

25:                                               ; preds = %24, %Abc_TtPrintHexRev.exit17
  %indvars.iv21 = phi i64 [ 0, %24 ], [ %indvars.iv.next22, %Abc_TtPrintHexRev.exit17 ]
  %26 = getelementptr inbounds nuw [8 x i64], ptr @__const.Ree_TruthPrecompute.Truths, i64 0, i64 %indvars.iv21
  %27 = load i64, ptr %26, align 8, !tbaa !3
  %28 = and i64 %27, -4340410370284600381
  %29 = shl i64 %27, 2
  %30 = and i64 %29, 3472328296227680304
  %31 = or disjoint i64 %30, %28
  %32 = lshr i64 %27, 2
  %33 = and i64 %32, 868082074056920076
  %34 = or disjoint i64 %31, %33
  %35 = and i64 %34, -7378697629483820647
  %36 = shl i64 %31, 1
  %37 = and i64 %36, 4919131752989213764
  %38 = or disjoint i64 %37, %35
  %39 = lshr i64 %34, 1
  %40 = and i64 %39, 2459565876494606882
  %41 = or disjoint i64 %38, %40
  store i64 %41, ptr %1, align 8, !tbaa !3
  %42 = load ptr, ptr @stdout, align 8, !tbaa !7
  br label %.preheader.i9

.preheader.i9:                                    ; preds = %52, %25
  %.018.i10 = phi ptr [ %1, %25 ], [ %53, %52 ]
  br label %43

43:                                               ; preds = %43, %.preheader.i9
  %indvars.iv.i11 = phi i64 [ 1, %.preheader.i9 ], [ %indvars.iv.next.i14, %43 ]
  %44 = load i64, ptr %.018.i10, align 8, !tbaa !3
  %45 = shl nuw nsw i64 %indvars.iv.i11, 2
  %46 = lshr i64 %44, %45
  %47 = trunc i64 %46 to i32
  %48 = and i32 %47, 15
  %49 = icmp samesign ult i32 %48, 10
  %50 = or disjoint i32 %48, 48
  %51 = add nuw nsw i32 %48, 55
  %.0.i.i12 = select i1 %49, i32 %50, i32 %51
  %fputc.i13 = call i32 @fputc(i32 %.0.i.i12, ptr %42)
  %indvars.iv.next.i14 = add nsw i64 %indvars.iv.i11, -1
  %.not20.i15 = icmp eq i64 %indvars.iv.i11, 0
  br i1 %.not20.i15, label %52, label %43, !llvm.loop !10

52:                                               ; preds = %43
  %53 = getelementptr inbounds i8, ptr %.018.i10, i64 -8
  %.not.i16 = icmp ult ptr %53, %1
  br i1 %.not.i16, label %Abc_TtPrintHexRev.exit17, label %.preheader.i9, !llvm.loop !12

Abc_TtPrintHexRev.exit17:                         ; preds = %52
  %putchar7 = call i32 @putchar(i32 10)
  %indvars.iv.next22 = add nuw nsw i64 %indvars.iv21, 1
  %exitcond24.not = icmp eq i64 %indvars.iv.next22, 8
  br i1 %exitcond24.not, label %54, label %25, !llvm.loop !14

54:                                               ; preds = %Abc_TtPrintHexRev.exit17
  %putchar6 = call i32 @putchar(i32 10)
  call void @llvm.lifetime.end.p0(i64 8, ptr nonnull %1) #21
  ret void
}